target datalayout = "e-m:e-p270:32:32-p271:32:32-p272:64:64-i64:64-i128:128-f80:128-n8:16:32:64-S128"
target triple = "x86_64-unknown-linux-gnu"

%struct.Token = type { i32, ptr, i64, x86_fp80, ptr, i32, ptr, ptr, ptr, ptr, i32, i32, i8, i8, ptr, ptr }

@.str.66 = private unnamed_addr constant [23 x i8] c"expected an identifier\00", align 1

; Function Attrs: nounwind uwtable
define internal ptr @get_ident(ptr noundef %tok) #0 {
entry:
  %tok.addr = alloca ptr, align 8
  store ptr %tok, ptr %tok.addr, align 8
  %0 = load ptr, ptr %tok.addr, align 8
  %kind = getelementptr inbounds %struct.Token, ptr %0, i32 0, i32 0
  %1 = load i32, ptr %kind, align 16
  %cmp = icmp ne i32 %1, 0
  br i1 %cmp, label %if.then, label %if.end

if.then:                                          ; preds = %entry
  %2 = load ptr, ptr %tok.addr, align 8
  call void (ptr, ptr, ...) @error_tok(ptr noundef %2, ptr noundef @.str.66) #9
  unreachable

if.end:                                           ; preds = %entry
  %3 = load ptr, ptr %tok.addr, align 8
  %loc = getelementptr inbounds %struct.Token, ptr %3, i32 0, i32 4
  %4 = load ptr, ptr %loc, align 16
  %5 = load ptr, ptr %tok.addr, align 8
  %len = getelementptr inbounds %struct.Token, ptr %5, i32 0, i32 5
  %6 = load i32, ptr %len, align 8
  %conv = sext i32 %6 to i64
  %call = call noalias ptr @strndup(ptr noundef %4, i64 noundef %conv) #11
  ret ptr %call
}