; Function Attrs: nounwind uwtable
define internal fastcc noalias ptr @get_ident(ptr noundef %tok) unnamed_addr #0 {
entry:
  %0 = load i32, ptr %tok, align 16
  %cmp.not = icmp eq i32 %0, 0
  br i1 %cmp.not, label %if.end, label %if.then

if.then:                                          ; preds = %entry
  tail call void (ptr, ptr, ...) @error_tok(ptr noundef nonnull %tok, ptr noundef nonnull @.str.66) #16
  unreachable

if.end:                                           ; preds = %entry
  %loc = getelementptr inbounds %struct.Token, ptr %tok, i64 0, i32 4
  %1 = load ptr, ptr %loc, align 16
  %len = getelementptr inbounds %struct.Token, ptr %tok, i64 0, i32 5
  %2 = load i32, ptr %len, align 8
  %conv = sext i32 %2 to i64
  %call = tail call noalias ptr @strndup(ptr noundef %1, i64 noundef %conv) #13
  ret ptr %call
}